target datalayout = "e-m:e-p270:32:32-p271:32:32-p272:64:64-i64:64-i128:128-f80:128-n8:16:32:64-S128"
target triple = "x86_64-pc-linux-gnu"

%struct.__va_list_tag = type { i32, i32, ptr, ptr }
%struct.FFFILE = type { i64, ptr, ptr, ptr, ptr, i64, i64, ptr, ptr }

; Function Attrs: nounwind uwtable
define internal i32 @ff_vsscanf(ptr noundef %0, ptr noundef %1, ptr noundef %2) #0 {
  %4 = alloca ptr, align 8
  %5 = alloca ptr, align 8
  %6 = alloca ptr, align 8
  %7 = alloca %struct.FFFILE, align 8
  store ptr %0, ptr %4, align 8, !tbaa !4
  store ptr %1, ptr %5, align 8, !tbaa !4
  store ptr %2, ptr %6, align 8, !tbaa !11
  call void @llvm.lifetime.start.p0(i64 72, ptr %7) #9
  %8 = getelementptr inbounds nuw %struct.FFFILE, ptr %7, i32 0, i32 0
  store i64 0, ptr %8, align 8, !tbaa !13
  %9 = getelementptr inbounds nuw %struct.FFFILE, ptr %7, i32 0, i32 1
  %10 = load ptr, ptr %4, align 8, !tbaa !4
  store ptr %10, ptr %9, align 8, !tbaa !16
  %11 = getelementptr inbounds nuw %struct.FFFILE, ptr %7, i32 0, i32 2
  store ptr null, ptr %11, align 8, !tbaa !17
  %12 = getelementptr inbounds nuw %struct.FFFILE, ptr %7, i32 0, i32 3
  store ptr null, ptr %12, align 8, !tbaa !18
  %13 = getelementptr inbounds nuw %struct.FFFILE, ptr %7, i32 0, i32 4
  store ptr null, ptr %13, align 8, !tbaa !19
  %14 = getelementptr inbounds nuw %struct.FFFILE, ptr %7, i32 0, i32 5
  store i64 0, ptr %14, align 8, !tbaa !20
  %15 = getelementptr inbounds nuw %struct.FFFILE, ptr %7, i32 0, i32 6
  store i64 0, ptr %15, align 8, !tbaa !21
  %16 = getelementptr inbounds nuw %struct.FFFILE, ptr %7, i32 0, i32 7
  %17 = load ptr, ptr %4, align 8, !tbaa !4
  store ptr %17, ptr %16, align 8, !tbaa !22
  %18 = getelementptr inbounds nuw %struct.FFFILE, ptr %7, i32 0, i32 8
  store ptr @ffstring_read, ptr %18, align 8, !tbaa !23
  %19 = load ptr, ptr %5, align 8, !tbaa !4
  %20 = load ptr, ptr %6, align 8, !tbaa !11
  %21 = call i32 @ff_vfscanf(ptr noundef %7, ptr noundef %19, ptr noundef %20)
  call void @llvm.lifetime.end.p0(i64 72, ptr %7) #9
  ret i32 %21
}

; Function Attrs: nounwind uwtable
define i32 @av_sscanf(ptr noundef %0, ptr noundef %1, ...) #0 {
  %3 = alloca ptr, align 8
  %4 = alloca ptr, align 8
  %5 = alloca i32, align 4
  %6 = alloca [1 x %struct.__va_list_tag], align 16
  store ptr %0, ptr %3, align 8, !tbaa !4
  store ptr %1, ptr %4, align 8, !tbaa !4
  call void @llvm.lifetime.start.p0(i64 4, ptr %5) #9
  call void @llvm.lifetime.start.p0(i64 24, ptr %6) #9
  %7 = getelementptr inbounds [1 x %struct.__va_list_tag], ptr %6, i64 0, i64 0
  call void @llvm.va_start.p0(ptr %7)
  %8 = load ptr, ptr %3, align 8, !tbaa !4
  %9 = load ptr, ptr %4, align 8, !tbaa !4
  %10 = getelementptr inbounds [1 x %struct.__va_list_tag], ptr %6, i64 0, i64 0
  %11 = call i32 @ff_vsscanf(ptr noundef %8, ptr noundef %9, ptr noundef %10)
  store i32 %11, ptr %5, align 4, !tbaa !9
  %12 = getelementptr inbounds [1 x %struct.__va_list_tag], ptr %6, i64 0, i64 0
  call void @llvm.va_end.p0(ptr %12)
  %13 = load i32, ptr %5, align 4, !tbaa !9
  call void @llvm.lifetime.end.p0(i64 24, ptr %6) #9
  call void @llvm.lifetime.end.p0(i64 4, ptr %5) #9
  ret i32 %13
}