; Function Attrs: nounwind uwtable
define i32 @av_sscanf(ptr noundef %0, ptr noundef readonly captures(none) %1, ...) local_unnamed_addr #0 {
  %3 = alloca %struct.FFFILE, align 8
  %4 = alloca [1 x %struct.__va_list_tag], align 16
  call void @llvm.lifetime.start.p0(i64 24, ptr nonnull %4) #11
  call void @llvm.va_start.p0(ptr nonnull %4)
  call void @llvm.lifetime.start.p0(i64 72, ptr nonnull %3) #11
  store i64 0, ptr %3, align 8, !tbaa !4
  %5 = getelementptr inbounds nuw i8, ptr %3, i64 8
  store ptr %0, ptr %5, align 8, !tbaa !11
  %6 = getelementptr inbounds nuw i8, ptr %3, i64 16
  %7 = getelementptr inbounds nuw i8, ptr %3, i64 56
  call void @llvm.memset.p0.i64(ptr noundef nonnull align 8 dereferenceable(40) %6, i8 0, i64 40, i1 false)
  store ptr %0, ptr %7, align 8, !tbaa !12
  %8 = getelementptr inbounds nuw i8, ptr %3, i64 64
  store ptr @ffstring_read, ptr %8, align 8, !tbaa !13
  %9 = call fastcc i32 @ff_vfscanf(ptr noundef %3, ptr noundef readonly %1, ptr noundef nonnull %4)
  call void @llvm.lifetime.end.p0(i64 72, ptr nonnull %3) #11
  call void @llvm.va_end.p0(ptr nonnull %4)
  call void @llvm.lifetime.end.p0(i64 24, ptr nonnull %4) #11
  ret i32 %9
}